(dp0
S'jadedungeon'
p1
(dp2
S'passwd'
p3
S'p@ssw0rd'
p4
sS'host'
p5
S'localhost'
p6
sS'charset'
p7
S'utf8'
p8
sS'db'
p9
g1
sS'user'
p10
S'root'
p11
ssS'b5mbeta'
p12
(dp13
g3
S'izene123'
p14
sg5
S'180.153.140.112'
p15
sg7
g8
sg9
S'b5m_develop'
p16
sg10
S'b5m'
p17
ssS'b5mstage'
p18
(dp19
g3
g14
sg5
g15
sg7
g8
sg9
S'b5m_stage'
p20
sg10
g17
ssS'b5mb5m'
p21
(dp22
g3
g14
sg5
g15
sg7
g8
sg9
S'b5m_b5m'
p23
sg10
g17
ss.